target datalayout = "e-m:e-p270:32:32-p271:32:32-p272:64:64-i64:64-i128:128-f80:128-n8:16:32:64-S128"
target triple = "x86_64-pc-linux-gnu"

%"struct.Luau::Compile::Constant" = type { i32, i32, %union.anon }
%union.anon = type { double, [8 x i8] }

; Function Attrs: mustprogress nounwind uwtable
define internal noundef zeroext i1 @_ZN4Luau7CompileL14constantsEqualERKNS0_8ConstantES3_(ptr noundef nonnull align 8 dereferenceable(24) %0, ptr noundef nonnull align 8 dereferenceable(24) %1) #4 {
  %3 = alloca i1, align 1
  %4 = alloca ptr, align 8
  %5 = alloca ptr, align 8
  store ptr %0, ptr %4, align 8, !tbaa !218
  store ptr %1, ptr %5, align 8, !tbaa !218
  %6 = load ptr, ptr %4, align 8, !tbaa !218
  %7 = getelementptr inbounds nuw %"struct.Luau::Compile::Constant", ptr %6, i32 0, i32 0
  %8 = load i32, ptr %7, align 8, !tbaa !135
  switch i32 %8, label %123 [
    i32 1, label %9
    i32 2, label %14
    i32 3, label %33
    i32 4, label %48
    i32 5, label %95
  ]

9:                                                ; preds = %2
  %10 = load ptr, ptr %5, align 8, !tbaa !218
  %11 = getelementptr inbounds nuw %"struct.Luau::Compile::Constant", ptr %10, i32 0, i32 0
  %12 = load i32, ptr %11, align 8, !tbaa !135
  %13 = icmp eq i32 %12, 1
  store i1 %13, ptr %3, align 1
  br label %124

14:                                               ; preds = %2
  %15 = load ptr, ptr %5, align 8, !tbaa !218
  %16 = getelementptr inbounds nuw %"struct.Luau::Compile::Constant", ptr %15, i32 0, i32 0
  %17 = load i32, ptr %16, align 8, !tbaa !135
  %18 = icmp eq i32 %17, 2
  br i1 %18, label %19, label %31

19:                                               ; preds = %14
  %20 = load ptr, ptr %4, align 8, !tbaa !218
  %21 = getelementptr inbounds nuw %"struct.Luau::Compile::Constant", ptr %20, i32 0, i32 2
  %22 = load i8, ptr %21, align 8, !tbaa !139, !range !22, !noundef !23
  %23 = trunc i8 %22 to i1
  %24 = zext i1 %23 to i32
  %25 = load ptr, ptr %5, align 8, !tbaa !218
  %26 = getelementptr inbounds nuw %"struct.Luau::Compile::Constant", ptr %25, i32 0, i32 2
  %27 = load i8, ptr %26, align 8, !tbaa !139, !range !22, !noundef !23
  %28 = trunc i8 %27 to i1
  %29 = zext i1 %28 to i32
  %30 = icmp eq i32 %24, %29
  br label %31

31:                                               ; preds = %19, %14
  %32 = phi i1 [ false, %14 ], [ %30, %19 ]
  store i1 %32, ptr %3, align 1
  br label %124

33:                                               ; preds = %2
  %34 = load ptr, ptr %5, align 8, !tbaa !218
  %35 = getelementptr inbounds nuw %"struct.Luau::Compile::Constant", ptr %34, i32 0, i32 0
  %36 = load i32, ptr %35, align 8, !tbaa !135
  %37 = icmp eq i32 %36, 3
  br i1 %37, label %38, label %46

38:                                               ; preds = %33
  %39 = load ptr, ptr %4, align 8, !tbaa !218
  %40 = getelementptr inbounds nuw %"struct.Luau::Compile::Constant", ptr %39, i32 0, i32 2
  %41 = load double, ptr %40, align 8, !tbaa !139
  %42 = load ptr, ptr %5, align 8, !tbaa !218
  %43 = getelementptr inbounds nuw %"struct.Luau::Compile::Constant", ptr %42, i32 0, i32 2
  %44 = load double, ptr %43, align 8, !tbaa !139
  %45 = fcmp oeq double %41, %44
  br label %46

46:                                               ; preds = %38, %33
  %47 = phi i1 [ false, %33 ], [ %45, %38 ]
  store i1 %47, ptr %3, align 1
  br label %124

48:                                               ; preds = %2
  %49 = load ptr, ptr %5, align 8, !tbaa !218
  %50 = getelementptr inbounds nuw %"struct.Luau::Compile::Constant", ptr %49, i32 0, i32 0
  %51 = load i32, ptr %50, align 8, !tbaa !135
  %52 = icmp eq i32 %51, 4
  br i1 %52, label %53, label %93

53:                                               ; preds = %48
  %54 = load ptr, ptr %4, align 8, !tbaa !218
  %55 = getelementptr inbounds nuw %"struct.Luau::Compile::Constant", ptr %54, i32 0, i32 2
  %56 = getelementptr inbounds [4 x float], ptr %55, i64 0, i64 0
  %57 = load float, ptr %56, align 8, !tbaa !139
  %58 = load ptr, ptr %5, align 8, !tbaa !218
  %59 = getelementptr inbounds nuw %"struct.Luau::Compile::Constant", ptr %58, i32 0, i32 2
  %60 = getelementptr inbounds [4 x float], ptr %59, i64 0, i64 0
  %61 = load float, ptr %60, align 8, !tbaa !139
  %62 = fcmp oeq float %57, %61
  br i1 %62, label %63, label %93

63:                                               ; preds = %53
  %64 = load ptr, ptr %4, align 8, !tbaa !218
  %65 = getelementptr inbounds nuw %"struct.Luau::Compile::Constant", ptr %64, i32 0, i32 2
  %66 = getelementptr inbounds [4 x float], ptr %65, i64 0, i64 1
  %67 = load float, ptr %66, align 4, !tbaa !139
  %68 = load ptr, ptr %5, align 8, !tbaa !218
  %69 = getelementptr inbounds nuw %"struct.Luau::Compile::Constant", ptr %68, i32 0, i32 2
  %70 = getelementptr inbounds [4 x float], ptr %69, i64 0, i64 1
  %71 = load float, ptr %70, align 4, !tbaa !139
  %72 = fcmp oeq float %67, %71
  br i1 %72, label %73, label %93

73:                                               ; preds = %63
  %74 = load ptr, ptr %4, align 8, !tbaa !218
  %75 = getelementptr inbounds nuw %"struct.Luau::Compile::Constant", ptr %74, i32 0, i32 2
  %76 = getelementptr inbounds [4 x float], ptr %75, i64 0, i64 2
  %77 = load float, ptr %76, align 8, !tbaa !139
  %78 = load ptr, ptr %5, align 8, !tbaa !218
  %79 = getelementptr inbounds nuw %"struct.Luau::Compile::Constant", ptr %78, i32 0, i32 2
  %80 = getelementptr inbounds [4 x float], ptr %79, i64 0, i64 2
  %81 = load float, ptr %80, align 8, !tbaa !139
  %82 = fcmp oeq float %77, %81
  br i1 %82, label %83, label %93

83:                                               ; preds = %73
  %84 = load ptr, ptr %4, align 8, !tbaa !218
  %85 = getelementptr inbounds nuw %"struct.Luau::Compile::Constant", ptr %84, i32 0, i32 2
  %86 = getelementptr inbounds [4 x float], ptr %85, i64 0, i64 3
  %87 = load float, ptr %86, align 4, !tbaa !139
  %88 = load ptr, ptr %5, align 8, !tbaa !218
  %89 = getelementptr inbounds nuw %"struct.Luau::Compile::Constant", ptr %88, i32 0, i32 2
  %90 = getelementptr inbounds [4 x float], ptr %89, i64 0, i64 3
  %91 = load float, ptr %90, align 4, !tbaa !139
  %92 = fcmp oeq float %87, %91
  br label %93

93:                                               ; preds = %83, %73, %63, %53, %48
  %94 = phi i1 [ false, %73 ], [ false, %63 ], [ false, %53 ], [ false, %48 ], [ %92, %83 ]
  store i1 %94, ptr %3, align 1
  br label %124

95:                                               ; preds = %2
  %96 = load ptr, ptr %5, align 8, !tbaa !218
  %97 = getelementptr inbounds nuw %"struct.Luau::Compile::Constant", ptr %96, i32 0, i32 0
  %98 = load i32, ptr %97, align 8, !tbaa !135
  %99 = icmp eq i32 %98, 5
  br i1 %99, label %100, label %121

100:                                              ; preds = %95
  %101 = load ptr, ptr %4, align 8, !tbaa !218
  %102 = getelementptr inbounds nuw %"struct.Luau::Compile::Constant", ptr %101, i32 0, i32 1
  %103 = load i32, ptr %102, align 4, !tbaa !138
  %104 = load ptr, ptr %5, align 8, !tbaa !218
  %105 = getelementptr inbounds nuw %"struct.Luau::Compile::Constant", ptr %104, i32 0, i32 1
  %106 = load i32, ptr %105, align 4, !tbaa !138
  %107 = icmp eq i32 %103, %106
  br i1 %107, label %108, label %121

108:                                              ; preds = %100
  %109 = load ptr, ptr %4, align 8, !tbaa !218
  %110 = getelementptr inbounds nuw %"struct.Luau::Compile::Constant", ptr %109, i32 0, i32 2
  %111 = load ptr, ptr %110, align 8, !tbaa !139
  %112 = load ptr, ptr %5, align 8, !tbaa !218
  %113 = getelementptr inbounds nuw %"struct.Luau::Compile::Constant", ptr %112, i32 0, i32 2
  %114 = load ptr, ptr %113, align 8, !tbaa !139
  %115 = load ptr, ptr %4, align 8, !tbaa !218
  %116 = getelementptr inbounds nuw %"struct.Luau::Compile::Constant", ptr %115, i32 0, i32 1
  %117 = load i32, ptr %116, align 4, !tbaa !138
  %118 = zext i32 %117 to i64
  %119 = call i32 @memcmp(ptr noundef %111, ptr noundef %114, i64 noundef %118) #21
  %120 = icmp eq i32 %119, 0
  br label %121

121:                                              ; preds = %108, %100, %95
  %122 = phi i1 [ false, %100 ], [ false, %95 ], [ %120, %108 ]
  store i1 %122, ptr %3, align 1
  br label %124

123:                                              ; preds = %2
  store i1 false, ptr %3, align 1
  br label %124

124:                                              ; preds = %123, %121, %93, %46, %31, %9
  %125 = load i1, ptr %3, align 1
  ret i1 %125
}