; Function Attrs: mustprogress nofree nounwind willreturn memory(read, inaccessiblemem: none) uwtable
define internal fastcc noundef zeroext i1 @_ZN4Luau7CompileL14constantsEqualERKNS0_8ConstantES3_(ptr noundef nonnull readonly align 8 captures(none) dereferenceable(24) %0, ptr noundef nonnull readonly align 8 captures(none) dereferenceable(24) %1) unnamed_addr #16 {
  %3 = load i32, ptr %0, align 8, !tbaa !63
  switch i32 %3, label %68 [
    i32 1, label %4
    i32 2, label %7
    i32 3, label %16
    i32 4, label %25
    i32 5, label %52
  ]

4:                                                ; preds = %2
  %5 = load i32, ptr %1, align 8, !tbaa !63
  %6 = icmp eq i32 %5, 1
  br label %68

7:                                                ; preds = %2
  %8 = load i32, ptr %1, align 8, !tbaa !63
  %9 = icmp eq i32 %8, 2
  %10 = getelementptr inbounds nuw i8, ptr %0, i64 8
  %11 = load i8, ptr %10, align 8, !range !75
  %12 = getelementptr inbounds nuw i8, ptr %1, i64 8
  %13 = load i8, ptr %12, align 8, !range !75
  %14 = icmp eq i8 %11, %13
  %15 = select i1 %9, i1 %14, i1 false
  br label %68

16:                                               ; preds = %2
  %17 = load i32, ptr %1, align 8, !tbaa !63
  %18 = icmp eq i32 %17, 3
  %19 = getelementptr inbounds nuw i8, ptr %0, i64 8
  %20 = load double, ptr %19, align 8
  %21 = getelementptr inbounds nuw i8, ptr %1, i64 8
  %22 = load double, ptr %21, align 8
  %23 = fcmp oeq double %20, %22
  %24 = select i1 %18, i1 %23, i1 false
  br label %68

25:                                               ; preds = %2
  %26 = load i32, ptr %1, align 8, !tbaa !63
  %27 = icmp eq i32 %26, 4
  br i1 %27, label %28, label %68

28:                                               ; preds = %25
  %29 = getelementptr inbounds nuw i8, ptr %0, i64 8
  %30 = load float, ptr %29, align 8, !tbaa !67
  %31 = getelementptr inbounds nuw i8, ptr %1, i64 8
  %32 = load float, ptr %31, align 8, !tbaa !67
  %33 = fcmp oeq float %30, %32
  br i1 %33, label %34, label %68

34:                                               ; preds = %28
  %35 = getelementptr inbounds nuw i8, ptr %0, i64 12
  %36 = load float, ptr %35, align 4, !tbaa !67
  %37 = getelementptr inbounds nuw i8, ptr %1, i64 12
  %38 = load float, ptr %37, align 4, !tbaa !67
  %39 = fcmp oeq float %36, %38
  br i1 %39, label %40, label %68

40:                                               ; preds = %34
  %41 = getelementptr inbounds nuw i8, ptr %0, i64 16
  %42 = load float, ptr %41, align 8, !tbaa !67
  %43 = getelementptr inbounds nuw i8, ptr %1, i64 16
  %44 = load float, ptr %43, align 8, !tbaa !67
  %45 = fcmp oeq float %42, %44
  br i1 %45, label %46, label %68

46:                                               ; preds = %40
  %47 = getelementptr inbounds nuw i8, ptr %0, i64 20
  %48 = load float, ptr %47, align 4, !tbaa !67
  %49 = getelementptr inbounds nuw i8, ptr %1, i64 20
  %50 = load float, ptr %49, align 4, !tbaa !67
  %51 = fcmp oeq float %48, %50
  br label %68

52:                                               ; preds = %2
  %53 = load i32, ptr %1, align 8, !tbaa !63
  %54 = icmp eq i32 %53, 5
  br i1 %54, label %55, label %68

55:                                               ; preds = %52
  %56 = getelementptr inbounds nuw i8, ptr %0, i64 4
  %57 = load i32, ptr %56, align 4, !tbaa !66
  %58 = getelementptr inbounds nuw i8, ptr %1, i64 4
  %59 = load i32, ptr %58, align 4, !tbaa !66
  %60 = icmp eq i32 %57, %59
  br i1 %60, label %61, label %68

61:                                               ; preds = %55
  %62 = getelementptr inbounds nuw i8, ptr %0, i64 8
  %63 = load ptr, ptr %62, align 8, !tbaa !67
  %64 = getelementptr inbounds nuw i8, ptr %1, i64 8
  %65 = load ptr, ptr %64, align 8, !tbaa !67
  %66 = zext i32 %57 to i64
  %bcmp = tail call i32 @bcmp(ptr %63, ptr %65, i64 %66)
  %67 = icmp eq i32 %bcmp, 0
  br label %68

68:                                               ; preds = %2, %52, %55, %61, %25, %28, %34, %40, %46, %16, %7, %4
  %.0 = phi i1 [ %24, %16 ], [ %15, %7 ], [ %6, %4 ], [ false, %40 ], [ false, %34 ], [ false, %28 ], [ false, %25 ], [ %51, %46 ], [ false, %55 ], [ false, %52 ], [ %67, %61 ], [ false, %2 ]
  ret i1 %.0
}